target datalayout = "e-m:e-p270:32:32-p271:32:32-p272:64:64-i64:64-i128:128-f80:128-n8:16:32:64-S128"
target triple = "x86_64-unknown-linux-gnu"

; Function Attrs: nounwind uwtable
define internal i32 @arenas_decay_ms_ctl_impl(ptr noundef %tsd, ptr noundef %mib, i64 noundef %miblen, ptr noundef %oldp, ptr noundef %oldlenp, ptr noundef %newp, i64 noundef %newlen, i1 noundef zeroext %dirty) #0 {
entry:
  %tsd.addr = alloca ptr, align 8
  %mib.addr = alloca ptr, align 8
  %miblen.addr = alloca i64, align 8
  %oldp.addr = alloca ptr, align 8
  %oldlenp.addr = alloca ptr, align 8
  %newp.addr = alloca ptr, align 8
  %newlen.addr = alloca i64, align 8
  %dirty.addr = alloca i8, align 1
  %ret = alloca i32, align 4
  %oldval = alloca i64, align 8
  %copylen = alloca i64, align 8
  store ptr %tsd, ptr %tsd.addr, align 8
  store ptr %mib, ptr %mib.addr, align 8
  store i64 %miblen, ptr %miblen.addr, align 8
  store ptr %oldp, ptr %oldp.addr, align 8
  store ptr %oldlenp, ptr %oldlenp.addr, align 8
  store ptr %newp, ptr %newp.addr, align 8
  store i64 %newlen, ptr %newlen.addr, align 8
  %frombool = zext i1 %dirty to i8
  store i8 %frombool, ptr %dirty.addr, align 1
  %0 = load ptr, ptr %oldp.addr, align 8
  %cmp = icmp ne ptr %0, null
  br i1 %cmp, label %land.lhs.true, label %if.end15

land.lhs.true:                                    ; preds = %entry
  %1 = load ptr, ptr %oldlenp.addr, align 8
  %cmp1 = icmp ne ptr %1, null
  br i1 %cmp1, label %if.then, label %if.end15

if.then:                                          ; preds = %land.lhs.true
  %2 = load i8, ptr %dirty.addr, align 1
  %tobool = trunc i8 %2 to i1
  br i1 %tobool, label %cond.true, label %cond.false

cond.true:                                        ; preds = %if.then
  %call = call i64 @arena_dirty_decay_ms_default_get()
  br label %cond.end

cond.false:                                       ; preds = %if.then
  %call2 = call i64 @arena_muzzy_decay_ms_default_get()
  br label %cond.end

cond.end:                                         ; preds = %cond.false, %cond.true
  %cond = phi i64 [ %call, %cond.true ], [ %call2, %cond.false ]
  store i64 %cond, ptr %oldval, align 8
  br label %do.body

do.body:                                          ; preds = %cond.end
  %3 = load ptr, ptr %oldp.addr, align 8
  %cmp3 = icmp ne ptr %3, null
  br i1 %cmp3, label %land.lhs.true4, label %if.end14

land.lhs.true4:                                   ; preds = %do.body
  %4 = load ptr, ptr %oldlenp.addr, align 8
  %cmp5 = icmp ne ptr %4, null
  br i1 %cmp5, label %if.then6, label %if.end14

if.then6:                                         ; preds = %land.lhs.true4
  %5 = load ptr, ptr %oldlenp.addr, align 8
  %6 = load i64, ptr %5, align 8
  %cmp7 = icmp ne i64 %6, 8
  br i1 %cmp7, label %if.then8, label %if.end

if.then8:                                         ; preds = %if.then6
  %7 = load ptr, ptr %oldlenp.addr, align 8
  %8 = load i64, ptr %7, align 8
  %cmp9 = icmp ule i64 8, %8
  br i1 %cmp9, label %cond.true10, label %cond.false11

cond.true10:                                      ; preds = %if.then8
  br label %cond.end12

cond.false11:                                     ; preds = %if.then8
  %9 = load ptr, ptr %oldlenp.addr, align 8
  %10 = load i64, ptr %9, align 8
  br label %cond.end12

cond.end12:                                       ; preds = %cond.false11, %cond.true10
  %cond13 = phi i64 [ 8, %cond.true10 ], [ %10, %cond.false11 ]
  store i64 %cond13, ptr %copylen, align 8
  %11 = load ptr, ptr %oldp.addr, align 8
  %12 = load i64, ptr %copylen, align 8
  call void @llvm.memcpy.p0.p0.i64(ptr align 1 %11, ptr align 1 %oldval, i64 %12, i1 false)
  %13 = load i64, ptr %copylen, align 8
  %14 = load ptr, ptr %oldlenp.addr, align 8
  store i64 %13, ptr %14, align 8
  store i32 22, ptr %ret, align 4
  br label %label_return

if.end:                                           ; preds = %if.then6
  %15 = load i64, ptr %oldval, align 8
  %16 = load ptr, ptr %oldp.addr, align 8
  store i64 %15, ptr %16, align 8
  br label %if.end14

if.end14:                                         ; preds = %if.end, %land.lhs.true4, %do.body
  br label %do.end

do.end:                                           ; preds = %if.end14
  br label %if.end15

if.end15:                                         ; preds = %do.end, %land.lhs.true, %entry
  %17 = load ptr, ptr %newp.addr, align 8
  %cmp16 = icmp ne ptr %17, null
  br i1 %cmp16, label %if.then17, label %if.end28

if.then17:                                        ; preds = %if.end15
  %18 = load i64, ptr %newlen.addr, align 8
  %cmp18 = icmp ne i64 %18, 8
  br i1 %cmp18, label %if.then19, label %if.end20

if.then19:                                        ; preds = %if.then17
  store i32 22, ptr %ret, align 4
  br label %label_return

if.end20:                                         ; preds = %if.then17
  %19 = load i8, ptr %dirty.addr, align 1
  %tobool21 = trunc i8 %19 to i1
  br i1 %tobool21, label %cond.true22, label %cond.false24

cond.true22:                                      ; preds = %if.end20
  %20 = load ptr, ptr %newp.addr, align 8
  %21 = load i64, ptr %20, align 8
  %call23 = call zeroext i1 @arena_dirty_decay_ms_default_set(i64 noundef %21)
  br i1 %call23, label %if.then26, label %if.end27

cond.false24:                                     ; preds = %if.end20
  %22 = load ptr, ptr %newp.addr, align 8
  %23 = load i64, ptr %22, align 8
  %call25 = call zeroext i1 @arena_muzzy_decay_ms_default_set(i64 noundef %23)
  br i1 %call25, label %if.then26, label %if.end27

if.then26:                                        ; preds = %cond.false24, %cond.true22
  store i32 14, ptr %ret, align 4
  br label %label_return

if.end27:                                         ; preds = %cond.false24, %cond.true22
  br label %if.end28

if.end28:                                         ; preds = %if.end27, %if.end15
  store i32 0, ptr %ret, align 4
  br label %label_return

label_return:                                     ; preds = %if.end28, %if.then26, %if.then19, %cond.end12
  %24 = load i32, ptr %ret, align 4
  ret i32 %24
}

; Function Attrs: nounwind uwtable
define internal i32 @arenas_muzzy_decay_ms_ctl(ptr noundef %tsd, ptr noundef %mib, i64 noundef %miblen, ptr noundef %oldp, ptr noundef %oldlenp, ptr noundef %newp, i64 noundef %newlen) #0 {
entry:
  %tsd.addr = alloca ptr, align 8
  %mib.addr = alloca ptr, align 8
  %miblen.addr = alloca i64, align 8
  %oldp.addr = alloca ptr, align 8
  %oldlenp.addr = alloca ptr, align 8
  %newp.addr = alloca ptr, align 8
  %newlen.addr = alloca i64, align 8
  store ptr %tsd, ptr %tsd.addr, align 8
  store ptr %mib, ptr %mib.addr, align 8
  store i64 %miblen, ptr %miblen.addr, align 8
  store ptr %oldp, ptr %oldp.addr, align 8
  store ptr %oldlenp, ptr %oldlenp.addr, align 8
  store ptr %newp, ptr %newp.addr, align 8
  store i64 %newlen, ptr %newlen.addr, align 8
  %0 = load ptr, ptr %tsd.addr, align 8
  %1 = load ptr, ptr %mib.addr, align 8
  %2 = load i64, ptr %miblen.addr, align 8
  %3 = load ptr, ptr %oldp.addr, align 8
  %4 = load ptr, ptr %oldlenp.addr, align 8
  %5 = load ptr, ptr %newp.addr, align 8
  %6 = load i64, ptr %newlen.addr, align 8
  %call = call i32 @arenas_decay_ms_ctl_impl(ptr noundef %0, ptr noundef %1, i64 noundef %2, ptr noundef %3, ptr noundef %4, ptr noundef %5, i64 noundef %6, i1 noundef zeroext false)
  ret i32 %call
}